target datalayout = "e-m:e-p270:32:32-p271:32:32-p272:64:64-i64:64-i128:128-f80:128-n8:16:32:64-S128"
target triple = "x86_64-pc-linux-gnu"

%struct.Aig_Man_t_ = type { ptr, ptr, ptr, ptr, ptr, ptr, ptr, %struct.Aig_Obj_t_, i32, i32, i32, i32, i32, i32, [7 x i32], i32, ptr, i32, ptr, i32, ptr, i32, i32, i32, ptr, i32, i32, i32, i32, i32, ptr, ptr, i32, ptr, ptr, i32, ptr, ptr, i32, i32, i32, ptr, ptr, ptr, ptr, ptr, ptr, ptr, ptr, ptr, ptr, ptr, ptr, ptr, ptr, i32, ptr, ptr, ptr, ptr, i32, i64, i64, i64, ptr, ptr }
%struct.Aig_Obj_t_ = type { %union.anon, ptr, ptr, i64, i32, i32, %union.anon.0 }
%union.anon = type { ptr }
%union.anon.0 = type { ptr }
%struct.Vec_Ptr_t_ = type { i32, i32, ptr }

; Function Attrs: inlinehint nounwind uwtable
define internal i32 @Aig_IsComplement(ptr noundef %0) #4 {
  %2 = alloca ptr, align 8
  store ptr %0, ptr %2, align 8, !tbaa !24
  %3 = load ptr, ptr %2, align 8, !tbaa !24
  %4 = ptrtoint ptr %3 to i64
  %5 = and i64 %4, 1
  %6 = trunc i64 %5 to i32
  ret i32 %6
}

; Function Attrs: inlinehint nounwind uwtable
define internal ptr @Aig_Regular(ptr noundef %0) #4 {
  %2 = alloca ptr, align 8
  store ptr %0, ptr %2, align 8, !tbaa !24
  %3 = load ptr, ptr %2, align 8, !tbaa !24
  %4 = ptrtoint ptr %3 to i64
  %5 = and i64 %4, -2
  %6 = inttoptr i64 %5 to ptr
  ret ptr %6
}

; Function Attrs: inlinehint nounwind uwtable
define internal i32 @Aig_ObjFaninC1(ptr noundef %0) #4 {
  %2 = alloca ptr, align 8
  store ptr %0, ptr %2, align 8, !tbaa !24
  %3 = load ptr, ptr %2, align 8, !tbaa !24
  %4 = getelementptr inbounds nuw %struct.Aig_Obj_t_, ptr %3, i32 0, i32 2
  %5 = load ptr, ptr %4, align 8, !tbaa !40
  %6 = call i32 @Aig_IsComplement(ptr noundef %5)
  ret i32 %6
}

; Function Attrs: inlinehint nounwind uwtable
define internal ptr @Aig_ObjFanin1(ptr noundef %0) #4 {
  %2 = alloca ptr, align 8
  store ptr %0, ptr %2, align 8, !tbaa !24
  %3 = load ptr, ptr %2, align 8, !tbaa !24
  %4 = getelementptr inbounds nuw %struct.Aig_Obj_t_, ptr %3, i32 0, i32 2
  %5 = load ptr, ptr %4, align 8, !tbaa !40
  %6 = call ptr @Aig_Regular(ptr noundef %5)
  ret ptr %6
}

; Function Attrs: inlinehint nounwind uwtable
define internal i32 @Aig_ObjFaninC0(ptr noundef %0) #4 {
  %2 = alloca ptr, align 8
  store ptr %0, ptr %2, align 8, !tbaa !24
  %3 = load ptr, ptr %2, align 8, !tbaa !24
  %4 = getelementptr inbounds nuw %struct.Aig_Obj_t_, ptr %3, i32 0, i32 1
  %5 = load ptr, ptr %4, align 8, !tbaa !37
  %6 = call i32 @Aig_IsComplement(ptr noundef %5)
  ret i32 %6
}

; Function Attrs: inlinehint nounwind uwtable
define internal ptr @Aig_ObjFanin0(ptr noundef %0) #4 {
  %2 = alloca ptr, align 8
  store ptr %0, ptr %2, align 8, !tbaa !24
  %3 = load ptr, ptr %2, align 8, !tbaa !24
  %4 = getelementptr inbounds nuw %struct.Aig_Obj_t_, ptr %3, i32 0, i32 1
  %5 = load ptr, ptr %4, align 8, !tbaa !37
  %6 = call ptr @Aig_Regular(ptr noundef %5)
  ret ptr %6
}

; Function Attrs: inlinehint nounwind uwtable
define internal i32 @Aig_ObjIsNode(ptr noundef %0) #4 {
  %2 = alloca ptr, align 8
  store ptr %0, ptr %2, align 8, !tbaa !24
  %3 = load ptr, ptr %2, align 8, !tbaa !24
  %4 = getelementptr inbounds nuw %struct.Aig_Obj_t_, ptr %3, i32 0, i32 3
  %5 = load i64, ptr %4, align 8
  %6 = and i64 %5, 7
  %7 = trunc i64 %6 to i32
  %8 = icmp eq i32 %7, 5
  br i1 %8, label %16, label %9

9:                                                ; preds = %1
  %10 = load ptr, ptr %2, align 8, !tbaa !24
  %11 = getelementptr inbounds nuw %struct.Aig_Obj_t_, ptr %10, i32 0, i32 3
  %12 = load i64, ptr %11, align 8
  %13 = and i64 %12, 7
  %14 = trunc i64 %13 to i32
  %15 = icmp eq i32 %14, 6
  br label %16

16:                                               ; preds = %9, %1
  %17 = phi i1 [ true, %1 ], [ %15, %9 ]
  %18 = zext i1 %17 to i32
  ret i32 %18
}

; Function Attrs: inlinehint nounwind uwtable
define internal ptr @Vec_PtrEntry(ptr noundef %0, i32 noundef %1) #4 {
  %3 = alloca ptr, align 8
  %4 = alloca i32, align 4
  store ptr %0, ptr %3, align 8, !tbaa !32
  store i32 %1, ptr %4, align 4, !tbaa !22
  %5 = load ptr, ptr %3, align 8, !tbaa !32
  %6 = getelementptr inbounds nuw %struct.Vec_Ptr_t_, ptr %5, i32 0, i32 2
  %7 = load ptr, ptr %6, align 8, !tbaa !35
  %8 = load i32, ptr %4, align 4, !tbaa !22
  %9 = sext i32 %8 to i64
  %10 = getelementptr inbounds ptr, ptr %7, i64 %9
  %11 = load ptr, ptr %10, align 8, !tbaa !36
  ret ptr %11
}

; Function Attrs: inlinehint nounwind uwtable
define internal i32 @Vec_PtrSize(ptr noundef %0) #4 {
  %2 = alloca ptr, align 8
  store ptr %0, ptr %2, align 8, !tbaa !32
  %3 = load ptr, ptr %2, align 8, !tbaa !32
  %4 = getelementptr inbounds nuw %struct.Vec_Ptr_t_, ptr %3, i32 0, i32 1
  %5 = load i32, ptr %4, align 4, !tbaa !33
  ret i32 %5
}

; Function Attrs: inlinehint nounwind uwtable
define internal ptr @Aig_ManConst1(ptr noundef %0) #4 {
  %2 = alloca ptr, align 8
  store ptr %0, ptr %2, align 8, !tbaa !3
  %3 = load ptr, ptr %2, align 8, !tbaa !3
  %4 = getelementptr inbounds nuw %struct.Aig_Man_t_, ptr %3, i32 0, i32 6
  %5 = load ptr, ptr %4, align 8, !tbaa !72
  ret ptr %5
}

; Function Attrs: nounwind uwtable
define void @Aig_ManSetPhase(ptr noundef %0) #0 {
  %2 = alloca ptr, align 8
  %3 = alloca ptr, align 8
  %4 = alloca i32, align 4
  store ptr %0, ptr %2, align 8, !tbaa !3
  call void @llvm.lifetime.start.p0(i64 8, ptr %3) #10
  call void @llvm.lifetime.start.p0(i64 4, ptr %4) #10
  %5 = load ptr, ptr %2, align 8, !tbaa !3
  %6 = call ptr @Aig_ManConst1(ptr noundef %5)
  %7 = getelementptr inbounds nuw %struct.Aig_Obj_t_, ptr %6, i32 0, i32 3
  %8 = load i64, ptr %7, align 8
  %9 = and i64 %8, -9
  %10 = or i64 %9, 8
  store i64 %10, ptr %7, align 8
  store i32 0, ptr %4, align 4, !tbaa !22
  br label %11

11:                                               ; preds = %32, %1
  %12 = load i32, ptr %4, align 4, !tbaa !22
  %13 = load ptr, ptr %2, align 8, !tbaa !3
  %14 = getelementptr inbounds nuw %struct.Aig_Man_t_, ptr %13, i32 0, i32 2
  %15 = load ptr, ptr %14, align 8, !tbaa !59
  %16 = call i32 @Vec_PtrSize(ptr noundef %15)
  %17 = icmp slt i32 %12, %16
  br i1 %17, label %18, label %24

18:                                               ; preds = %11
  %19 = load ptr, ptr %2, align 8, !tbaa !3
  %20 = getelementptr inbounds nuw %struct.Aig_Man_t_, ptr %19, i32 0, i32 2
  %21 = load ptr, ptr %20, align 8, !tbaa !59
  %22 = load i32, ptr %4, align 4, !tbaa !22
  %23 = call ptr @Vec_PtrEntry(ptr noundef %21, i32 noundef %22)
  store ptr %23, ptr %3, align 8, !tbaa !24
  br label %24

24:                                               ; preds = %18, %11
  %25 = phi i1 [ false, %11 ], [ true, %18 ]
  br i1 %25, label %26, label %35

26:                                               ; preds = %24
  %27 = load ptr, ptr %3, align 8, !tbaa !24
  %28 = getelementptr inbounds nuw %struct.Aig_Obj_t_, ptr %27, i32 0, i32 3
  %29 = load i64, ptr %28, align 8
  %30 = and i64 %29, -9
  %31 = or i64 %30, 0
  store i64 %31, ptr %28, align 8
  br label %32

32:                                               ; preds = %26
  %33 = load i32, ptr %4, align 4, !tbaa !22
  %34 = add nsw i32 %33, 1
  store i32 %34, ptr %4, align 4, !tbaa !22
  br label %11, !llvm.loop !121

35:                                               ; preds = %24
  store i32 0, ptr %4, align 4, !tbaa !22
  br label %36

36:                                               ; preds = %90, %35
  %37 = load i32, ptr %4, align 4, !tbaa !22
  %38 = load ptr, ptr %2, align 8, !tbaa !3
  %39 = getelementptr inbounds nuw %struct.Aig_Man_t_, ptr %38, i32 0, i32 4
  %40 = load ptr, ptr %39, align 8, !tbaa !23
  %41 = call i32 @Vec_PtrSize(ptr noundef %40)
  %42 = icmp slt i32 %37, %41
  br i1 %42, label %43, label %49

43:                                               ; preds = %36
  %44 = load ptr, ptr %2, align 8, !tbaa !3
  %45 = getelementptr inbounds nuw %struct.Aig_Man_t_, ptr %44, i32 0, i32 4
  %46 = load ptr, ptr %45, align 8, !tbaa !23
  %47 = load i32, ptr %4, align 4, !tbaa !22
  %48 = call ptr @Vec_PtrEntry(ptr noundef %46, i32 noundef %47)
  store ptr %48, ptr %3, align 8, !tbaa !24
  br label %49

49:                                               ; preds = %43, %36
  %50 = phi i1 [ false, %36 ], [ true, %43 ]
  br i1 %50, label %51, label %93

51:                                               ; preds = %49
  %52 = load ptr, ptr %3, align 8, !tbaa !24
  %53 = icmp eq ptr %52, null
  br i1 %53, label %58, label %54

54:                                               ; preds = %51
  %55 = load ptr, ptr %3, align 8, !tbaa !24
  %56 = call i32 @Aig_ObjIsNode(ptr noundef %55)
  %57 = icmp ne i32 %56, 0
  br i1 %57, label %59, label %58

58:                                               ; preds = %54, %51
  br label %89

59:                                               ; preds = %54
  %60 = load ptr, ptr %3, align 8, !tbaa !24
  %61 = call ptr @Aig_ObjFanin0(ptr noundef %60)
  %62 = getelementptr inbounds nuw %struct.Aig_Obj_t_, ptr %61, i32 0, i32 3
  %63 = load i64, ptr %62, align 8
  %64 = lshr i64 %63, 3
  %65 = and i64 %64, 1
  %66 = trunc i64 %65 to i32
  %67 = load ptr, ptr %3, align 8, !tbaa !24
  %68 = call i32 @Aig_ObjFaninC0(ptr noundef %67)
  %69 = xor i32 %66, %68
  %70 = load ptr, ptr %3, align 8, !tbaa !24
  %71 = call ptr @Aig_ObjFanin1(ptr noundef %70)
  %72 = getelementptr inbounds nuw %struct.Aig_Obj_t_, ptr %71, i32 0, i32 3
  %73 = load i64, ptr %72, align 8
  %74 = lshr i64 %73, 3
  %75 = and i64 %74, 1
  %76 = trunc i64 %75 to i32
  %77 = load ptr, ptr %3, align 8, !tbaa !24
  %78 = call i32 @Aig_ObjFaninC1(ptr noundef %77)
  %79 = xor i32 %76, %78
  %80 = and i32 %69, %79
  %81 = load ptr, ptr %3, align 8, !tbaa !24
  %82 = getelementptr inbounds nuw %struct.Aig_Obj_t_, ptr %81, i32 0, i32 3
  %83 = zext i32 %80 to i64
  %84 = load i64, ptr %82, align 8
  %85 = and i64 %83, 1
  %86 = shl i64 %85, 3
  %87 = and i64 %84, -9
  %88 = or i64 %87, %86
  store i64 %88, ptr %82, align 8
  br label %89

89:                                               ; preds = %59, %58
  br label %90

90:                                               ; preds = %89
  %91 = load i32, ptr %4, align 4, !tbaa !22
  %92 = add nsw i32 %91, 1
  store i32 %92, ptr %4, align 4, !tbaa !22
  br label %36, !llvm.loop !122

93:                                               ; preds = %49
  store i32 0, ptr %4, align 4, !tbaa !22
  br label %94

94:                                               ; preds = %128, %93
  %95 = load i32, ptr %4, align 4, !tbaa !22
  %96 = load ptr, ptr %2, align 8, !tbaa !3
  %97 = getelementptr inbounds nuw %struct.Aig_Man_t_, ptr %96, i32 0, i32 3
  %98 = load ptr, ptr %97, align 8, !tbaa !30
  %99 = call i32 @Vec_PtrSize(ptr noundef %98)
  %100 = icmp slt i32 %95, %99
  br i1 %100, label %101, label %107

101:                                              ; preds = %94
  %102 = load ptr, ptr %2, align 8, !tbaa !3
  %103 = getelementptr inbounds nuw %struct.Aig_Man_t_, ptr %102, i32 0, i32 3
  %104 = load ptr, ptr %103, align 8, !tbaa !30
  %105 = load i32, ptr %4, align 4, !tbaa !22
  %106 = call ptr @Vec_PtrEntry(ptr noundef %104, i32 noundef %105)
  store ptr %106, ptr %3, align 8, !tbaa !24
  br label %107

107:                                              ; preds = %101, %94
  %108 = phi i1 [ false, %94 ], [ true, %101 ]
  br i1 %108, label %109, label %131

109:                                              ; preds = %107
  %110 = load ptr, ptr %3, align 8, !tbaa !24
  %111 = call ptr @Aig_ObjFanin0(ptr noundef %110)
  %112 = getelementptr inbounds nuw %struct.Aig_Obj_t_, ptr %111, i32 0, i32 3
  %113 = load i64, ptr %112, align 8
  %114 = lshr i64 %113, 3
  %115 = and i64 %114, 1
  %116 = trunc i64 %115 to i32
  %117 = load ptr, ptr %3, align 8, !tbaa !24
  %118 = call i32 @Aig_ObjFaninC0(ptr noundef %117)
  %119 = xor i32 %116, %118
  %120 = load ptr, ptr %3, align 8, !tbaa !24
  %121 = getelementptr inbounds nuw %struct.Aig_Obj_t_, ptr %120, i32 0, i32 3
  %122 = zext i32 %119 to i64
  %123 = load i64, ptr %121, align 8
  %124 = and i64 %122, 1
  %125 = shl i64 %124, 3
  %126 = and i64 %123, -9
  %127 = or i64 %126, %125
  store i64 %127, ptr %121, align 8
  br label %128

128:                                              ; preds = %109
  %129 = load i32, ptr %4, align 4, !tbaa !22
  %130 = add nsw i32 %129, 1
  store i32 %130, ptr %4, align 4, !tbaa !22
  br label %94, !llvm.loop !123

131:                                              ; preds = %107
  call void @llvm.lifetime.end.p0(i64 4, ptr %4) #10
  call void @llvm.lifetime.end.p0(i64 8, ptr %3) #10
  ret void
}