; Function Attrs: nofree norecurse nosync nounwind memory(readwrite, inaccessiblemem: none) uwtable
define void @Aig_ManSetPhase(ptr noundef readonly captures(none) %0) local_unnamed_addr #0 {
  %2 = getelementptr i8, ptr %0, i64 48
  %.val43 = load ptr, ptr %2, align 8, !tbaa !56
  %3 = getelementptr inbounds nuw i8, ptr %.val43, i64 24
  %4 = load i64, ptr %3, align 8
  %5 = or i64 %4, 8
  store i64 %5, ptr %3, align 8
  %6 = getelementptr inbounds nuw i8, ptr %0, i64 16
  %7 = load ptr, ptr %6, align 8, !tbaa !53
  %8 = getelementptr i8, ptr %7, i64 4
  %.val3245 = load i32, ptr %8, align 4, !tbaa !22
  %9 = icmp sgt i32 %.val3245, 0
  br i1 %9, label %.lr.ph, label %.critedge.preheader

.critedge.preheader:                              ; preds = %.lr.ph, %1
  %10 = getelementptr inbounds nuw i8, ptr %0, i64 32
  %11 = load ptr, ptr %10, align 8, !tbaa !21
  %12 = getelementptr i8, ptr %11, i64 4
  %.val3147 = load i32, ptr %12, align 4, !tbaa !22
  %13 = icmp sgt i32 %.val3147, 0
  br i1 %13, label %.lr.ph49, label %.critedge2.preheader

.lr.ph:                                           ; preds = %1, %.lr.ph
  %indvars.iv = phi i64 [ %indvars.iv.next, %.lr.ph ], [ 0, %1 ]
  %14 = phi ptr [ %21, %.lr.ph ], [ %7, %1 ]
  %15 = getelementptr i8, ptr %14, i64 8
  %.val35 = load ptr, ptr %15, align 8, !tbaa !24
  %16 = getelementptr inbounds nuw ptr, ptr %.val35, i64 %indvars.iv
  %17 = load ptr, ptr %16, align 8, !tbaa !25
  %18 = getelementptr inbounds nuw i8, ptr %17, i64 24
  %19 = load i64, ptr %18, align 8
  %20 = and i64 %19, -9
  store i64 %20, ptr %18, align 8
  %indvars.iv.next = add nuw nsw i64 %indvars.iv, 1
  %21 = load ptr, ptr %6, align 8, !tbaa !53
  %22 = getelementptr i8, ptr %21, i64 4
  %.val32 = load i32, ptr %22, align 4, !tbaa !22
  %23 = sext i32 %.val32 to i64
  %24 = icmp slt i64 %indvars.iv.next, %23
  br i1 %24, label %.lr.ph, label %.critedge.preheader, !llvm.loop !110

.critedge2.preheader:                             ; preds = %.critedge, %.critedge.preheader
  %25 = getelementptr inbounds nuw i8, ptr %0, i64 24
  %26 = load ptr, ptr %25, align 8, !tbaa !31
  %27 = getelementptr i8, ptr %26, i64 4
  %.val50 = load i32, ptr %27, align 4, !tbaa !22
  %28 = icmp sgt i32 %.val50, 0
  br i1 %28, label %.critedge2, label %.critedge4

.lr.ph49:                                         ; preds = %.critedge.preheader, %.critedge
  %29 = phi ptr [ %67, %.critedge ], [ %11, %.critedge.preheader ]
  %indvars.iv55 = phi i64 [ %indvars.iv.next56, %.critedge ], [ 0, %.critedge.preheader ]
  %30 = getelementptr i8, ptr %29, i64 8
  %.val34 = load ptr, ptr %30, align 8, !tbaa !24
  %31 = getelementptr inbounds nuw ptr, ptr %.val34, i64 %indvars.iv55
  %32 = load ptr, ptr %31, align 8, !tbaa !25
  %33 = icmp eq ptr %32, null
  br i1 %33, label %.critedge, label %34

34:                                               ; preds = %.lr.ph49
  %35 = getelementptr i8, ptr %32, i64 24
  %.val42 = load i64, ptr %35, align 8
  %36 = trunc i64 %.val42 to i32
  %37 = and i32 %36, 7
  %38 = add nsw i32 %37, -7
  %narrow.i = icmp ult i32 %38, -2
  br i1 %narrow.i, label %.critedge, label %39

39:                                               ; preds = %34
  %40 = getelementptr i8, ptr %32, i64 8
  %.val37 = load ptr, ptr %40, align 8, !tbaa !32
  %41 = ptrtoint ptr %.val37 to i64
  %42 = and i64 %41, -2
  %43 = inttoptr i64 %42 to ptr
  %44 = getelementptr inbounds nuw i8, ptr %43, i64 24
  %45 = load i64, ptr %44, align 8
  %46 = trunc i64 %45 to i32
  %47 = lshr i32 %46, 3
  %48 = trunc i64 %41 to i32
  %49 = xor i32 %47, %48
  %50 = getelementptr i8, ptr %32, i64 16
  %.val38 = load ptr, ptr %50, align 8, !tbaa !35
  %51 = ptrtoint ptr %.val38 to i64
  %52 = and i64 %51, -2
  %53 = inttoptr i64 %52 to ptr
  %54 = getelementptr inbounds nuw i8, ptr %53, i64 24
  %55 = load i64, ptr %54, align 8
  %56 = trunc i64 %55 to i32
  %57 = lshr i32 %56, 3
  %58 = trunc i64 %51 to i32
  %59 = and i32 %58, 1
  %60 = xor i32 %57, %59
  %61 = and i32 %60, %49
  %62 = shl nuw i32 %61, 3
  %63 = and i32 %62, 8
  %64 = zext nneg i32 %63 to i64
  %65 = and i64 %.val42, -9
  %66 = or disjoint i64 %65, %64
  store i64 %66, ptr %35, align 8
  %.pre = load ptr, ptr %10, align 8, !tbaa !21
  br label %.critedge

.critedge:                                        ; preds = %39, %34, %.lr.ph49
  %67 = phi ptr [ %.pre, %39 ], [ %29, %34 ], [ %29, %.lr.ph49 ]
  %indvars.iv.next56 = add nuw nsw i64 %indvars.iv55, 1
  %68 = getelementptr i8, ptr %67, i64 4
  %.val31 = load i32, ptr %68, align 4, !tbaa !22
  %69 = sext i32 %.val31 to i64
  %70 = icmp slt i64 %indvars.iv.next56, %69
  br i1 %70, label %.lr.ph49, label %.critedge2.preheader, !llvm.loop !111

.critedge2:                                       ; preds = %.critedge2.preheader, %.critedge2
  %indvars.iv58 = phi i64 [ %indvars.iv.next59, %.critedge2 ], [ 0, %.critedge2.preheader ]
  %71 = phi ptr [ %87, %.critedge2 ], [ %26, %.critedge2.preheader ]
  %72 = getelementptr i8, ptr %71, i64 8
  %.val33 = load ptr, ptr %72, align 8, !tbaa !24
  %73 = getelementptr inbounds nuw ptr, ptr %.val33, i64 %indvars.iv58
  %74 = load ptr, ptr %73, align 8, !tbaa !25
  %75 = getelementptr i8, ptr %74, i64 8
  %.val36 = load ptr, ptr %75, align 8, !tbaa !32
  %76 = ptrtoint ptr %.val36 to i64
  %77 = and i64 %76, -2
  %78 = inttoptr i64 %77 to ptr
  %79 = getelementptr inbounds nuw i8, ptr %78, i64 24
  %80 = load i64, ptr %79, align 8
  %81 = getelementptr inbounds nuw i8, ptr %74, i64 24
  %82 = load i64, ptr %81, align 8
  %83 = shl i64 %76, 3
  %.mask44 = xor i64 %83, %80
  %84 = and i64 %.mask44, 8
  %85 = and i64 %82, -9
  %86 = or disjoint i64 %84, %85
  store i64 %86, ptr %81, align 8
  %indvars.iv.next59 = add nuw nsw i64 %indvars.iv58, 1
  %87 = load ptr, ptr %25, align 8, !tbaa !31
  %88 = getelementptr i8, ptr %87, i64 4
  %.val = load i32, ptr %88, align 4, !tbaa !22
  %89 = sext i32 %.val to i64
  %90 = icmp slt i64 %indvars.iv.next59, %89
  br i1 %90, label %.critedge2, label %.critedge4, !llvm.loop !112

.critedge4:                                       ; preds = %.critedge2, %.critedge2.preheader
  ret void
}